target datalayout = "e-m:e-p270:32:32-p271:32:32-p272:64:64-i64:64-i128:128-f80:128-n8:16:32:64-S128"
target triple = "x86_64-unknown-linux-gnu"

%"class.openvdb::v11_0::points::AttributeSet" = type { %"class.std::shared_ptr", %"class.std::vector" }
%"class.std::shared_ptr" = type { %"class.std::__shared_ptr" }
%"class.std::__shared_ptr" = type { ptr, %"class.std::__shared_count" }
%"class.std::__shared_count" = type { ptr }
%"class.std::vector" = type { %"struct.std::_Vector_base" }
%"struct.std::_Vector_base" = type { %"struct.std::_Vector_base<std::shared_ptr<openvdb::v11_0::points::AttributeArray>, std::allocator<std::shared_ptr<openvdb::v11_0::points::AttributeArray>>>::_Vector_impl" }
%"struct.std::_Vector_base<std::shared_ptr<openvdb::v11_0::points::AttributeArray>, std::allocator<std::shared_ptr<openvdb::v11_0::points::AttributeArray>>>::_Vector_impl" = type { %"struct.std::_Vector_base<std::shared_ptr<openvdb::v11_0::points::AttributeArray>, std::allocator<std::shared_ptr<openvdb::v11_0::points::AttributeArray>>>::_Vector_impl_data" }
%"struct.std::_Vector_base<std::shared_ptr<openvdb::v11_0::points::AttributeArray>, std::allocator<std::shared_ptr<openvdb::v11_0::points::AttributeArray>>>::_Vector_impl_data" = type { ptr, ptr, ptr }
%"struct.std::_Vector_base.45" = type { %"struct.std::_Vector_base<unsigned long, std::allocator<unsigned long>>::_Vector_impl" }
%"struct.std::_Vector_base<unsigned long, std::allocator<unsigned long>>::_Vector_impl" = type { %"struct.std::_Vector_base<unsigned long, std::allocator<unsigned long>>::_Vector_impl_data" }
%"struct.std::_Vector_base<unsigned long, std::allocator<unsigned long>>::_Vector_impl_data" = type { ptr, ptr, ptr }
%"class.__gnu_cxx::__normal_iterator.69" = type { ptr }

; Function Attrs: mustprogress nounwind uwtable
define linkonce_odr noundef ptr @_ZNKSt12__shared_ptrIN7openvdb5v11_06points12AttributeSet10DescriptorELN9__gnu_cxx12_Lock_policyE2EE3getEv(ptr noundef nonnull align 8 dereferenceable(16) %this) #7 comdat align 2 {
entry:
  %this.addr = alloca ptr, align 8
  store ptr %this, ptr %this.addr, align 8
  %this1 = load ptr, ptr %this.addr, align 8
  %_M_ptr = getelementptr inbounds %"class.std::__shared_ptr", ptr %this1, i32 0, i32 0
  %0 = load ptr, ptr %_M_ptr, align 8
  ret ptr %0
}

; Function Attrs: mustprogress nounwind uwtable
define linkonce_odr noundef nonnull align 8 dereferenceable(8) ptr @_ZNK9__gnu_cxx17__normal_iteratorIPKmSt6vectorImSaImEEE4baseEv(ptr noundef nonnull align 8 dereferenceable(8) %this) #7 comdat align 2 {
entry:
  %this.addr = alloca ptr, align 8
  store ptr %this, ptr %this.addr, align 8
  %this1 = load ptr, ptr %this.addr, align 8
  %_M_current = getelementptr inbounds %"class.__gnu_cxx::__normal_iterator.69", ptr %this1, i32 0, i32 0
  ret ptr %_M_current
}

; Function Attrs: mustprogress nounwind uwtable
define linkonce_odr void @_ZN9__gnu_cxx17__normal_iteratorIPKmSt6vectorImSaImEEEC2ERKS2_(ptr noundef nonnull align 8 dereferenceable(8) %this, ptr noundef nonnull align 8 dereferenceable(8) %__i) unnamed_addr #7 comdat align 2 {
entry:
  %this.addr = alloca ptr, align 8
  %__i.addr = alloca ptr, align 8
  store ptr %this, ptr %this.addr, align 8
  store ptr %__i, ptr %__i.addr, align 8
  %this1 = load ptr, ptr %this.addr, align 8
  %_M_current = getelementptr inbounds %"class.__gnu_cxx::__normal_iterator.69", ptr %this1, i32 0, i32 0
  %0 = load ptr, ptr %__i.addr, align 8
  %1 = load ptr, ptr %0, align 8
  store ptr %1, ptr %_M_current, align 8
  ret void
}

; Function Attrs: mustprogress nounwind uwtable
define linkonce_odr noundef ptr @_ZNKSt19__shared_ptr_accessIN7openvdb5v11_06points12AttributeSet10DescriptorELN9__gnu_cxx12_Lock_policyE2ELb0ELb0EE6_M_getEv(ptr noundef nonnull align 1 dereferenceable(1) %this) #7 comdat align 2 {
entry:
  %this.addr = alloca ptr, align 8
  store ptr %this, ptr %this.addr, align 8
  %this1 = load ptr, ptr %this.addr, align 8
  %call = call noundef ptr @_ZNKSt12__shared_ptrIN7openvdb5v11_06points12AttributeSet10DescriptorELN9__gnu_cxx12_Lock_policyE2EE3getEv(ptr noundef nonnull align 8 dereferenceable(16) %this1) #3
  ret ptr %call
}

; Function Attrs: mustprogress nounwind uwtable
define linkonce_odr noundef zeroext i1 @_ZN9__gnu_cxxeqIPKmSt6vectorImSaImEEEEbRKNS_17__normal_iteratorIT_T0_EESB_(ptr noundef nonnull align 8 dereferenceable(8) %__lhs, ptr noundef nonnull align 8 dereferenceable(8) %__rhs) #7 comdat {
entry:
  %__lhs.addr = alloca ptr, align 8
  %__rhs.addr = alloca ptr, align 8
  store ptr %__lhs, ptr %__lhs.addr, align 8
  store ptr %__rhs, ptr %__rhs.addr, align 8
  %0 = load ptr, ptr %__lhs.addr, align 8
  %call = call noundef nonnull align 8 dereferenceable(8) ptr @_ZNK9__gnu_cxx17__normal_iteratorIPKmSt6vectorImSaImEEE4baseEv(ptr noundef nonnull align 8 dereferenceable(8) %0) #3
  %1 = load ptr, ptr %call, align 8
  %2 = load ptr, ptr %__rhs.addr, align 8
  %call1 = call noundef nonnull align 8 dereferenceable(8) ptr @_ZNK9__gnu_cxx17__normal_iteratorIPKmSt6vectorImSaImEEE4baseEv(ptr noundef nonnull align 8 dereferenceable(8) %2) #3
  %3 = load ptr, ptr %call1, align 8
  %cmp = icmp eq ptr %1, %3
  ret i1 %cmp
}

; Function Attrs: mustprogress nounwind uwtable
define linkonce_odr ptr @_ZNKSt6vectorImSaImEE3endEv(ptr noundef nonnull align 8 dereferenceable(24) %this) #7 comdat align 2 {
entry:
  %retval = alloca %"class.__gnu_cxx::__normal_iterator.69", align 8
  %this.addr = alloca ptr, align 8
  store ptr %this, ptr %this.addr, align 8
  %this1 = load ptr, ptr %this.addr, align 8
  %_M_impl = getelementptr inbounds %"struct.std::_Vector_base.45", ptr %this1, i32 0, i32 0
  %_M_finish = getelementptr inbounds %"struct.std::_Vector_base<unsigned long, std::allocator<unsigned long>>::_Vector_impl_data", ptr %_M_impl, i32 0, i32 1
  call void @_ZN9__gnu_cxx17__normal_iteratorIPKmSt6vectorImSaImEEEC2ERKS2_(ptr noundef nonnull align 8 dereferenceable(8) %retval, ptr noundef nonnull align 8 dereferenceable(8) %_M_finish) #3
  %coerce.dive = getelementptr inbounds %"class.__gnu_cxx::__normal_iterator.69", ptr %retval, i32 0, i32 0
  %0 = load ptr, ptr %coerce.dive, align 8
  ret ptr %0
}

; Function Attrs: mustprogress nounwind uwtable
define linkonce_odr ptr @_ZNKSt6vectorImSaImEE5beginEv(ptr noundef nonnull align 8 dereferenceable(24) %this) #7 comdat align 2 {
entry:
  %retval = alloca %"class.__gnu_cxx::__normal_iterator.69", align 8
  %this.addr = alloca ptr, align 8
  store ptr %this, ptr %this.addr, align 8
  %this1 = load ptr, ptr %this.addr, align 8
  %_M_impl = getelementptr inbounds %"struct.std::_Vector_base.45", ptr %this1, i32 0, i32 0
  %_M_start = getelementptr inbounds %"struct.std::_Vector_base<unsigned long, std::allocator<unsigned long>>::_Vector_impl_data", ptr %_M_impl, i32 0, i32 0
  call void @_ZN9__gnu_cxx17__normal_iteratorIPKmSt6vectorImSaImEEEC2ERKS2_(ptr noundef nonnull align 8 dereferenceable(8) %retval, ptr noundef nonnull align 8 dereferenceable(8) %_M_start) #3
  %coerce.dive = getelementptr inbounds %"class.__gnu_cxx::__normal_iterator.69", ptr %retval, i32 0, i32 0
  %0 = load ptr, ptr %coerce.dive, align 8
  ret ptr %0
}

; Function Attrs: mustprogress nounwind uwtable
define linkonce_odr noundef nonnull align 8 dereferenceable(240) ptr @_ZNKSt19__shared_ptr_accessIN7openvdb5v11_06points12AttributeSet10DescriptorELN9__gnu_cxx12_Lock_policyE2ELb0ELb0EEdeEv(ptr noundef nonnull align 1 dereferenceable(1) %this) #7 comdat align 2 {
entry:
  %this.addr = alloca ptr, align 8
  store ptr %this, ptr %this.addr, align 8
  %this1 = load ptr, ptr %this.addr, align 8
  br label %do.body

do.body:                                          ; preds = %entry
  br label %do.cond

do.cond:                                          ; preds = %do.body
  br label %do.end

do.end:                                           ; preds = %do.cond
  %call = call noundef ptr @_ZNKSt19__shared_ptr_accessIN7openvdb5v11_06points12AttributeSet10DescriptorELN9__gnu_cxx12_Lock_policyE2ELb0ELb0EE6_M_getEv(ptr noundef nonnull align 1 dereferenceable(1) %this1) #3
  ret ptr %call
}

; Function Attrs: mustprogress nounwind uwtable
define linkonce_odr noundef ptr @_ZNKSt19__shared_ptr_accessIN7openvdb5v11_06points12AttributeSet10DescriptorELN9__gnu_cxx12_Lock_policyE2ELb0ELb0EEptEv(ptr noundef nonnull align 1 dereferenceable(1) %this) #7 comdat align 2 {
entry:
  %this.addr = alloca ptr, align 8
  store ptr %this, ptr %this.addr, align 8
  %this1 = load ptr, ptr %this.addr, align 8
  %call = call noundef ptr @_ZNKSt19__shared_ptr_accessIN7openvdb5v11_06points12AttributeSet10DescriptorELN9__gnu_cxx12_Lock_policyE2ELb0ELb0EE6_M_getEv(ptr noundef nonnull align 1 dereferenceable(1) %this1) #3
  ret ptr %call
}

; Function Attrs: mustprogress nounwind uwtable
define linkonce_odr noundef zeroext i1 @_ZNKSt6vectorImSaImEE5emptyEv(ptr noundef nonnull align 8 dereferenceable(24) %this) #7 comdat align 2 {
entry:
  %this.addr = alloca ptr, align 8
  %ref.tmp = alloca %"class.__gnu_cxx::__normal_iterator.69", align 8
  %ref.tmp2 = alloca %"class.__gnu_cxx::__normal_iterator.69", align 8
  store ptr %this, ptr %this.addr, align 8
  %this1 = load ptr, ptr %this.addr, align 8
  %call = call ptr @_ZNKSt6vectorImSaImEE5beginEv(ptr noundef nonnull align 8 dereferenceable(24) %this1) #3
  %coerce.dive = getelementptr inbounds %"class.__gnu_cxx::__normal_iterator.69", ptr %ref.tmp, i32 0, i32 0
  store ptr %call, ptr %coerce.dive, align 8
  %call3 = call ptr @_ZNKSt6vectorImSaImEE3endEv(ptr noundef nonnull align 8 dereferenceable(24) %this1) #3
  %coerce.dive4 = getelementptr inbounds %"class.__gnu_cxx::__normal_iterator.69", ptr %ref.tmp2, i32 0, i32 0
  store ptr %call3, ptr %coerce.dive4, align 8
  %call5 = call noundef zeroext i1 @_ZN9__gnu_cxxeqIPKmSt6vectorImSaImEEEEbRKNS_17__normal_iteratorIT_T0_EESB_(ptr noundef nonnull align 8 dereferenceable(8) %ref.tmp, ptr noundef nonnull align 8 dereferenceable(8) %ref.tmp2) #3
  ret i1 %call5
}

; Function Attrs: mustprogress uwtable
define void @_ZN7openvdb5v11_06points12AttributeSet14dropAttributesERKSt6vectorImSaImEE(ptr noundef nonnull align 8 dereferenceable(40) %this, ptr noundef nonnull align 8 dereferenceable(24) %pos) #4 align 2 personality ptr @__gxx_personality_v0 {
entry:
  %this.addr = alloca ptr, align 8
  %pos.addr = alloca ptr, align 8
  %descriptor = alloca %"class.std::shared_ptr", align 8
  %exn.slot = alloca ptr, align 8
  %ehselector.slot = alloca i32, align 4
  store ptr %this, ptr %this.addr, align 8
  store ptr %pos, ptr %pos.addr, align 8
  %this1 = load ptr, ptr %this.addr, align 8
  %0 = load ptr, ptr %pos.addr, align 8
  %call = call noundef zeroext i1 @_ZNKSt6vectorImSaImEE5emptyEv(ptr noundef nonnull align 8 dereferenceable(24) %0) #3
  br i1 %call, label %if.then, label %if.end

if.then:                                          ; preds = %entry
  br label %return

if.end:                                           ; preds = %entry
  %mDescr = getelementptr inbounds %"class.openvdb::v11_0::points::AttributeSet", ptr %this1, i32 0, i32 0
  %call2 = call noundef ptr @_ZNKSt19__shared_ptr_accessIN7openvdb5v11_06points12AttributeSet10DescriptorELN9__gnu_cxx12_Lock_policyE2ELb0ELb0EEptEv(ptr noundef nonnull align 1 dereferenceable(1) %mDescr) #3
  %1 = load ptr, ptr %pos.addr, align 8
  call void @_ZNK7openvdb5v11_06points12AttributeSet10Descriptor13duplicateDropERKSt6vectorImSaImEE(ptr sret(%"class.std::shared_ptr") align 8 %descriptor, ptr noundef nonnull align 8 dereferenceable(240) %call2, ptr noundef nonnull align 8 dereferenceable(24) %1)
  %2 = load ptr, ptr %pos.addr, align 8
  %mDescr3 = getelementptr inbounds %"class.openvdb::v11_0::points::AttributeSet", ptr %this1, i32 0, i32 0
  %call4 = call noundef nonnull align 8 dereferenceable(240) ptr @_ZNKSt19__shared_ptr_accessIN7openvdb5v11_06points12AttributeSet10DescriptorELN9__gnu_cxx12_Lock_policyE2ELb0ELb0EEdeEv(ptr noundef nonnull align 1 dereferenceable(1) %mDescr3) #3
  invoke void @_ZN7openvdb5v11_06points12AttributeSet14dropAttributesERKSt6vectorImSaImEERKNS2_10DescriptorERSt10shared_ptrIS8_E(ptr noundef nonnull align 8 dereferenceable(40) %this1, ptr noundef nonnull align 8 dereferenceable(24) %2, ptr noundef nonnull align 8 dereferenceable(240) %call4, ptr noundef nonnull align 8 dereferenceable(16) %descriptor)
          to label %invoke.cont unwind label %lpad

invoke.cont:                                      ; preds = %if.end
  call void @_ZNSt10shared_ptrIN7openvdb5v11_06points12AttributeSet10DescriptorEED2Ev(ptr noundef nonnull align 8 dereferenceable(16) %descriptor) #3
  br label %return

return:                                           ; preds = %invoke.cont, %if.then
  ret void

lpad:                                             ; preds = %if.end
  %3 = landingpad { ptr, i32 }
          cleanup
  %4 = extractvalue { ptr, i32 } %3, 0
  store ptr %4, ptr %exn.slot, align 8
  %5 = extractvalue { ptr, i32 } %3, 1
  store i32 %5, ptr %ehselector.slot, align 4
  call void @_ZNSt10shared_ptrIN7openvdb5v11_06points12AttributeSet10DescriptorEED2Ev(ptr noundef nonnull align 8 dereferenceable(16) %descriptor) #3
  br label %eh.resume

eh.resume:                                        ; preds = %lpad
  %exn = load ptr, ptr %exn.slot, align 8
  %sel = load i32, ptr %ehselector.slot, align 4
  %lpad.val = insertvalue { ptr, i32 } poison, ptr %exn, 0
  %lpad.val5 = insertvalue { ptr, i32 } %lpad.val, i32 %sel, 1
  resume { ptr, i32 } %lpad.val5
}